; Function Attrs: nounwind uwtable
define hidden void @uv__metrics_set_provider_entry_time(ptr noundef readonly captures(none) %0) local_unnamed_addr #0 {
  %2 = getelementptr inbounds nuw i8, ptr %0, i64 40
  %3 = load ptr, ptr %2, align 8
  %4 = load i32, ptr %3, align 8
  %5 = and i32 %4, 1
  %.not = icmp eq i32 %5, 0
  br i1 %.not, label %11, label %6

6:                                                ; preds = %1
  %7 = tail call i64 @uv_hrtime() #26
  %8 = load ptr, ptr %2, align 8
  %9 = getelementptr inbounds nuw i8, ptr %8, i64 152
  tail call void @uv_mutex_lock(ptr noundef nonnull %9) #26
  %10 = getelementptr inbounds nuw i8, ptr %8, i64 136
  store i64 %7, ptr %10, align 8
  tail call void @uv_mutex_unlock(ptr noundef nonnull %9) #26
  br label %11

11:                                               ; preds = %1, %6
  ret void
}